ccopy_reg
_reconstructor
p1
(cargparse
Namespace
p2
c__builtin__
object
p3
NtRp4
(dp5
S'num_epochs'
p6
I2
sS'grad_clip'
p7
F5
sS'rnn_size'
p8
I128
sS'save_dir'
p9
S'./checkpoints/schubert_data'
p10
sS'data_dir'
p11
S'./schubert_data'
p12
sS'vocab_size'
p13
I13
sS'learning_rate'
p14
F0.002
sS'save_model'
p15
S'./models'
p16
sS'seq_length'
p17
I64
sS'batch_size'
p18
I32
sS'decay_rate'
p19
F0.96999999999999997
sS'init_from'
p20
NsS'log_dir'
p21
S'logs'
p22
sS'num_layers'
p23
I2
sS'input_keep_prob'
p24
F1
sS'model'
p25
S'lstm'
p26
sS'save_checkpoints'
p27
S'./checkpoints'
p28
sS'save_every'
p29
I1000
sS'output_keep_prob'
p30
F1
sb.